target datalayout = "e-m:e-p270:32:32-p271:32:32-p272:64:64-i64:64-i128:128-f80:128-n8:16:32:64-S128"
target triple = "x86_64-pc-linux-gnu"

; Function Attrs: nounwind uwtable
define void @BZ2_hbAssignCodes(ptr noundef %0, ptr noundef %1, i32 noundef %2, i32 noundef %3, i32 noundef %4) #0 {
  %6 = alloca ptr, align 8
  %7 = alloca ptr, align 8
  %8 = alloca i32, align 4
  %9 = alloca i32, align 4
  %10 = alloca i32, align 4
  %11 = alloca i32, align 4
  %12 = alloca i32, align 4
  %13 = alloca i32, align 4
  store ptr %0, ptr %6, align 8, !tbaa !8
  store ptr %1, ptr %7, align 8, !tbaa !3
  store i32 %2, ptr %8, align 4, !tbaa !10
  store i32 %3, ptr %9, align 4, !tbaa !10
  store i32 %4, ptr %10, align 4, !tbaa !10
  call void @llvm.lifetime.start.p0(i64 4, ptr %11) #3
  call void @llvm.lifetime.start.p0(i64 4, ptr %12) #3
  call void @llvm.lifetime.start.p0(i64 4, ptr %13) #3
  store i32 0, ptr %12, align 4, !tbaa !10
  %14 = load i32, ptr %8, align 4, !tbaa !10
  store i32 %14, ptr %11, align 4, !tbaa !10
  br label %15

15:                                               ; preds = %48, %5
  %16 = load i32, ptr %11, align 4, !tbaa !10
  %17 = load i32, ptr %9, align 4, !tbaa !10
  %18 = icmp sle i32 %16, %17
  br i1 %18, label %19, label %51

19:                                               ; preds = %15
  store i32 0, ptr %13, align 4, !tbaa !10
  br label %20

20:                                               ; preds = %42, %19
  %21 = load i32, ptr %13, align 4, !tbaa !10
  %22 = load i32, ptr %10, align 4, !tbaa !10
  %23 = icmp slt i32 %21, %22
  br i1 %23, label %24, label %45

24:                                               ; preds = %20
  %25 = load ptr, ptr %7, align 8, !tbaa !3
  %26 = load i32, ptr %13, align 4, !tbaa !10
  %27 = sext i32 %26 to i64
  %28 = getelementptr inbounds i8, ptr %25, i64 %27
  %29 = load i8, ptr %28, align 1, !tbaa !18
  %30 = zext i8 %29 to i32
  %31 = load i32, ptr %11, align 4, !tbaa !10
  %32 = icmp eq i32 %30, %31
  br i1 %32, label %33, label %41

33:                                               ; preds = %24
  %34 = load i32, ptr %12, align 4, !tbaa !10
  %35 = load ptr, ptr %6, align 8, !tbaa !8
  %36 = load i32, ptr %13, align 4, !tbaa !10
  %37 = sext i32 %36 to i64
  %38 = getelementptr inbounds i32, ptr %35, i64 %37
  store i32 %34, ptr %38, align 4, !tbaa !10
  %39 = load i32, ptr %12, align 4, !tbaa !10
  %40 = add nsw i32 %39, 1
  store i32 %40, ptr %12, align 4, !tbaa !10
  br label %41

41:                                               ; preds = %33, %24
  br label %42

42:                                               ; preds = %41
  %43 = load i32, ptr %13, align 4, !tbaa !10
  %44 = add nsw i32 %43, 1
  store i32 %44, ptr %13, align 4, !tbaa !10
  br label %20, !llvm.loop !22

45:                                               ; preds = %20
  %46 = load i32, ptr %12, align 4, !tbaa !10
  %47 = shl i32 %46, 1
  store i32 %47, ptr %12, align 4, !tbaa !10
  br label %48

48:                                               ; preds = %45
  %49 = load i32, ptr %11, align 4, !tbaa !10
  %50 = add nsw i32 %49, 1
  store i32 %50, ptr %11, align 4, !tbaa !10
  br label %15, !llvm.loop !23

51:                                               ; preds = %15
  call void @llvm.lifetime.end.p0(i64 4, ptr %13) #3
  call void @llvm.lifetime.end.p0(i64 4, ptr %12) #3
  call void @llvm.lifetime.end.p0(i64 4, ptr %11) #3
  ret void
}